; Function Attrs: mustprogress uwtable
define dso_local void @_ZN11cmJSONState15AddErrorAtValueERKNSt7__cxx1112basic_stringIcSt11char_traitsIcESaIcEEEPKN4Json5ValueE(ptr noundef nonnull align 8 dereferenceable(80) %0, ptr noundef nonnull align 8 dereferenceable(32) %1, ptr noundef %2) local_unnamed_addr #0 align 2 personality ptr @__gxx_personality_v0 {
  %4 = alloca %"class.std::__cxx11::basic_string", align 8
  %.not = icmp eq ptr %2, null
  br i1 %.not, label %9, label %5

5:                                                ; preds = %3
  %6 = tail call noundef zeroext i1 @_ZNK4Json5Value6isNullEv(ptr noundef nonnull align 8 dereferenceable(40) %2)
  br i1 %6, label %9, label %7

7:                                                ; preds = %5
  %8 = tail call noundef i64 @_ZNK4Json5Value14getOffsetStartEv(ptr noundef nonnull align 8 dereferenceable(40) %2)
  tail call void @_ZN11cmJSONState16AddErrorAtOffsetERKNSt7__cxx1112basic_stringIcSt11char_traitsIcESaIcEEEl(ptr noundef nonnull align 8 dereferenceable(80) %0, ptr noundef nonnull align 8 dereferenceable(32) %1, i64 noundef %8)
  br label %_ZN11cmJSONState8AddErrorERKNSt7__cxx1112basic_stringIcSt11char_traitsIcESaIcEEE.exit

9:                                                ; preds = %5, %3
  %10 = getelementptr inbounds nuw i8, ptr %0, i64 32
  %11 = load ptr, ptr %10, align 8
  %12 = getelementptr inbounds nuw i8, ptr %0, i64 40
  %13 = load ptr, ptr %12, align 8
  %.not.i.i = icmp eq ptr %11, %13
  br i1 %.not.i.i, label %19, label %14

14:                                               ; preds = %9
  call void @llvm.lifetime.start.p0(i64 32, ptr nonnull %4)
  call void @_ZNSt7__cxx1112basic_stringIcSt11char_traitsIcESaIcEEC1ERKS4_(ptr noundef nonnull align 8 dereferenceable(32) %4, ptr noundef nonnull align 8 dereferenceable(32) %1)
  store i32 -1, ptr %11, align 8
  %15 = getelementptr inbounds nuw i8, ptr %11, i64 4
  store i32 -1, ptr %15, align 4
  %16 = getelementptr inbounds nuw i8, ptr %11, i64 8
  call void @_ZNSt7__cxx1112basic_stringIcSt11char_traitsIcESaIcEEC1EOS4_(ptr noundef nonnull align 8 dereferenceable(32) %16, ptr noundef nonnull align 8 dereferenceable(32) %4) #16
  call void @_ZNSt7__cxx1112basic_stringIcSt11char_traitsIcESaIcEED1Ev(ptr noundef nonnull align 8 dereferenceable(32) %4) #16
  call void @llvm.lifetime.end.p0(i64 32, ptr nonnull %4)
  %17 = load ptr, ptr %10, align 8
  %18 = getelementptr inbounds nuw i8, ptr %17, i64 40
  store ptr %18, ptr %10, align 8
  br label %_ZN11cmJSONState8AddErrorERKNSt7__cxx1112basic_stringIcSt11char_traitsIcESaIcEEE.exit

19:                                               ; preds = %9
  %20 = getelementptr inbounds nuw i8, ptr %0, i64 24
  tail call void @_ZNSt6vectorIN11cmJSONState5ErrorESaIS1_EE17_M_realloc_insertIJRKNSt7__cxx1112basic_stringIcSt11char_traitsIcESaIcEEEEEEvN9__gnu_cxx17__normal_iteratorIPS1_S3_EEDpOT_(ptr noundef nonnull align 8 dereferenceable(24) %20, ptr %11, ptr noundef nonnull align 8 dereferenceable(32) %1)
  br label %_ZN11cmJSONState8AddErrorERKNSt7__cxx1112basic_stringIcSt11char_traitsIcESaIcEEE.exit

_ZN11cmJSONState8AddErrorERKNSt7__cxx1112basic_stringIcSt11char_traitsIcESaIcEEE.exit: ; preds = %19, %14, %7
  ret void
}